target datalayout = "e-m:e-p270:32:32-p271:32:32-p272:64:64-i64:64-i128:128-f80:128-n8:16:32:64-S128"
target triple = "x86_64-pc-linux-gnu"

%struct.block = type { ptr, ptr }

; Function Attrs: nounwind uwtable
define internal { ptr, ptr } @gen_index_opt(ptr %0, ptr %1, ptr %2, ptr %3) #0 {
  %5 = alloca %struct.block, align 8
  %6 = alloca %struct.block, align 8
  %7 = alloca %struct.block, align 8
  %8 = alloca %struct.block, align 8
  %9 = alloca %struct.block, align 8
  %10 = alloca %struct.block, align 8
  %11 = getelementptr inbounds nuw { ptr, ptr }, ptr %6, i32 0, i32 0
  store ptr %0, ptr %11, align 8
  %12 = getelementptr inbounds nuw { ptr, ptr }, ptr %6, i32 0, i32 1
  store ptr %1, ptr %12, align 8
  %13 = getelementptr inbounds nuw { ptr, ptr }, ptr %7, i32 0, i32 0
  store ptr %2, ptr %13, align 8
  %14 = getelementptr inbounds nuw { ptr, ptr }, ptr %7, i32 0, i32 1
  store ptr %3, ptr %14, align 8
  %15 = getelementptr inbounds nuw { ptr, ptr }, ptr %7, i32 0, i32 0
  %16 = load ptr, ptr %15, align 8
  %17 = getelementptr inbounds nuw { ptr, ptr }, ptr %7, i32 0, i32 1
  %18 = load ptr, ptr %17, align 8
  %19 = call { ptr, ptr } @gen_subexp(ptr %16, ptr %18)
  %20 = getelementptr inbounds nuw { ptr, ptr }, ptr %9, i32 0, i32 0
  %21 = extractvalue { ptr, ptr } %19, 0
  store ptr %21, ptr %20, align 8
  %22 = getelementptr inbounds nuw { ptr, ptr }, ptr %9, i32 0, i32 1
  %23 = extractvalue { ptr, ptr } %19, 1
  store ptr %23, ptr %22, align 8
  %24 = getelementptr inbounds nuw { ptr, ptr }, ptr %9, i32 0, i32 0
  %25 = load ptr, ptr %24, align 8
  %26 = getelementptr inbounds nuw { ptr, ptr }, ptr %9, i32 0, i32 1
  %27 = load ptr, ptr %26, align 8
  %28 = getelementptr inbounds nuw { ptr, ptr }, ptr %6, i32 0, i32 0
  %29 = load ptr, ptr %28, align 8
  %30 = getelementptr inbounds nuw { ptr, ptr }, ptr %6, i32 0, i32 1
  %31 = load ptr, ptr %30, align 8
  %32 = call { ptr, ptr } @block_join(ptr %25, ptr %27, ptr %29, ptr %31)
  %33 = getelementptr inbounds nuw { ptr, ptr }, ptr %8, i32 0, i32 0
  %34 = extractvalue { ptr, ptr } %32, 0
  store ptr %34, ptr %33, align 8
  %35 = getelementptr inbounds nuw { ptr, ptr }, ptr %8, i32 0, i32 1
  %36 = extractvalue { ptr, ptr } %32, 1
  store ptr %36, ptr %35, align 8
  %37 = call { ptr, ptr } @gen_op_simple(i32 noundef 11)
  %38 = getelementptr inbounds nuw { ptr, ptr }, ptr %10, i32 0, i32 0
  %39 = extractvalue { ptr, ptr } %37, 0
  store ptr %39, ptr %38, align 8
  %40 = getelementptr inbounds nuw { ptr, ptr }, ptr %10, i32 0, i32 1
  %41 = extractvalue { ptr, ptr } %37, 1
  store ptr %41, ptr %40, align 8
  %42 = getelementptr inbounds nuw { ptr, ptr }, ptr %8, i32 0, i32 0
  %43 = load ptr, ptr %42, align 8
  %44 = getelementptr inbounds nuw { ptr, ptr }, ptr %8, i32 0, i32 1
  %45 = load ptr, ptr %44, align 8
  %46 = getelementptr inbounds nuw { ptr, ptr }, ptr %10, i32 0, i32 0
  %47 = load ptr, ptr %46, align 8
  %48 = getelementptr inbounds nuw { ptr, ptr }, ptr %10, i32 0, i32 1
  %49 = load ptr, ptr %48, align 8
  %50 = call { ptr, ptr } @block_join(ptr %43, ptr %45, ptr %47, ptr %49)
  %51 = getelementptr inbounds nuw { ptr, ptr }, ptr %5, i32 0, i32 0
  %52 = extractvalue { ptr, ptr } %50, 0
  store ptr %52, ptr %51, align 8
  %53 = getelementptr inbounds nuw { ptr, ptr }, ptr %5, i32 0, i32 1
  %54 = extractvalue { ptr, ptr } %50, 1
  store ptr %54, ptr %53, align 8
  %55 = load { ptr, ptr }, ptr %5, align 8
  ret { ptr, ptr } %55
}